(lp0
S'poi'
p1
aS'salary'
p2
aS'bonus'
p3
aS'bonus_salary_ratio'
p4
aS'deferred_income'
p5
aS'total_stock_value'
p6
aS'exercised_stock_options'
p7
aS'to_messages'
p8
aS'from_poi_to_this_person_percentage'
p9
aS'from_messages'
p10
aS'from_this_person_to_poi_percentage'
p11
aS'shared_receipt_with_poi'
p12
a.